target datalayout = "e-m:e-p270:32:32-p271:32:32-p272:64:64-i64:64-i128:128-f80:128-n8:16:32:64-S128"
target triple = "x86_64-pc-linux-gnu"

; Function Attrs: nounwind uwtable
define internal i32 @do_evp_kdf(ptr noundef %0, ptr noundef %1) #0 {
  %3 = alloca ptr, align 8
  %4 = alloca ptr, align 8
  %5 = alloca i32, align 4
  %6 = alloca ptr, align 8
  %7 = alloca [32 x i8], align 16
  store ptr %0, ptr %3, align 8, !tbaa !47
  store ptr %1, ptr %4, align 8, !tbaa !43
  call void @llvm.lifetime.start.p0(i64 4, ptr %5) #6
  store i32 1, ptr %5, align 4, !tbaa !37
  call void @llvm.lifetime.start.p0(i64 8, ptr %6) #6
  store ptr null, ptr %6, align 8, !tbaa !85
  call void @llvm.lifetime.start.p0(i64 32, ptr %7) #6
  %8 = load ptr, ptr %3, align 8, !tbaa !47
  %9 = call ptr @EVP_KDF_CTX_new(ptr noundef %8)
  store ptr %9, ptr %6, align 8, !tbaa !85
  %10 = load ptr, ptr %6, align 8, !tbaa !85
  %11 = icmp eq ptr %10, null
  br i1 %11, label %12, label %13

12:                                               ; preds = %2
  store i32 0, ptr %5, align 4, !tbaa !37
  br label %26

13:                                               ; preds = %2
  %14 = load ptr, ptr %6, align 8, !tbaa !85
  %15 = load ptr, ptr %4, align 8, !tbaa !43
  %16 = call i32 @EVP_KDF_CTX_set_params(ptr noundef %14, ptr noundef %15)
  %17 = icmp sle i32 %16, 0
  br i1 %17, label %18, label %19

18:                                               ; preds = %13
  store i32 0, ptr %5, align 4, !tbaa !37
  br label %26

19:                                               ; preds = %13
  %20 = load ptr, ptr %6, align 8, !tbaa !85
  %21 = getelementptr inbounds [32 x i8], ptr %7, i64 0, i64 0
  %22 = call i32 @EVP_KDF_derive(ptr noundef %20, ptr noundef %21, i64 noundef 32, ptr noundef null)
  %23 = icmp sle i32 %22, 0
  br i1 %23, label %24, label %25

24:                                               ; preds = %19
  store i32 0, ptr %5, align 4, !tbaa !37
  br label %26

25:                                               ; preds = %19
  br label %26

26:                                               ; preds = %25, %24, %18, %12
  %27 = load ptr, ptr %6, align 8, !tbaa !85
  call void @EVP_KDF_CTX_free(ptr noundef %27)
  %28 = load i32, ptr %5, align 4, !tbaa !37
  call void @llvm.lifetime.end.p0(i64 32, ptr %7) #6
  call void @llvm.lifetime.end.p0(i64 8, ptr %6) #6
  call void @llvm.lifetime.end.p0(i64 4, ptr %5) #6
  ret i32 %28
}