; Function Attrs: nounwind uwtable
define internal fastcc void @do_evp_kdf(ptr noundef nonnull %0, ptr noundef nonnull %1) unnamed_addr #0 {
  %3 = alloca [32 x i8], align 16
  call void @llvm.lifetime.start.p0(i64 32, ptr nonnull %3) #6
  %4 = tail call ptr @EVP_KDF_CTX_new(ptr noundef nonnull %0) #6
  %5 = icmp eq ptr %4, null
  br i1 %5, label %11, label %6

6:                                                ; preds = %2
  %7 = tail call i32 @EVP_KDF_CTX_set_params(ptr noundef nonnull %4, ptr noundef nonnull %1) #6
  %8 = icmp slt i32 %7, 1
  br i1 %8, label %11, label %9

9:                                                ; preds = %6
  %10 = call i32 @EVP_KDF_derive(ptr noundef nonnull %4, ptr noundef nonnull %3, i64 noundef 32, ptr noundef null) #6
  br label %11

11:                                               ; preds = %9, %6, %2
  call void @EVP_KDF_CTX_free(ptr noundef %4) #6
  call void @llvm.lifetime.end.p0(i64 32, ptr nonnull %3) #6
  ret void
}